target datalayout = "e-m:e-p270:32:32-p271:32:32-p272:64:64-i64:64-i128:128-f80:128-n8:16:32:64-S128"
target triple = "x86_64-pc-linux-gnu"

%struct.strvec = type { ptr, i64, i64 }
%struct.strbuf = type { i64, i64, ptr }
%struct.am_state = type { ptr, i32, i32, ptr, ptr, ptr, ptr, i64, %struct.object_id, i32, i32, i32, i32, i32, i32, i32, i32, i32, i32, i32, i32, %struct.strvec, ptr, i32, i32, i32, ptr, i32 }
%struct.object_id = type { [32 x i8], i32 }
%struct.repository = type { ptr, ptr, ptr, ptr, ptr, %struct.strmap, %struct.strmap, %struct.repo_path_cache, ptr, ptr, ptr, ptr, %struct.repo_settings, ptr, ptr, ptr, ptr, ptr, ptr, i32, i32, i32, ptr, ptr, i32, i32, i8 }
%struct.strmap = type { %struct.hashmap, ptr, i8 }
%struct.hashmap = type { ptr, ptr, ptr, i32, i32, i32, i32, i8 }
%struct.repo_path_cache = type { ptr, ptr, ptr, ptr, ptr, ptr, ptr }
%struct.repo_settings = type { i32, i32, i32, i32, i32, i32, i32, i32, i32, i32, i32, i32, ptr, i32, i32, i32, i32, i32, i32, i32, i64, i64, i64 }

@stderr = external global ptr, align 8
@the_repository = external global ptr, align 8
@.str.83 = private unnamed_addr constant [6 x i8] c"%s/%s\00", align 1
@.str.85 = private unnamed_addr constant [13 x i8] c"builtin/am.c\00", align 1
@.str.137 = private unnamed_addr constant [5 x i8] c"HEAD\00", align 1
@.str.139 = private unnamed_addr constant [3 x i8] c"am\00", align 1
@.str.170 = private unnamed_addr constant [4 x i8] c"%s\0A\00", align 1
@.str.198 = private unnamed_addr constant [10 x i8] c"rewritten\00", align 1
@__const.do_commit.sb = private unnamed_addr constant %struct.strbuf { i64 0, i64 0, ptr @strbuf_slopbuf }, align 8
@.str.245 = private unnamed_addr constant [15 x i8] c"pre-applypatch\00", align 1
@.str.246 = private unnamed_addr constant [38 x i8] c"git write-tree failed to write a tree\00", align 1
@.str.247 = private unnamed_addr constant [29 x i8] c"applying to an empty history\00", align 1
@.str.248 = private unnamed_addr constant [19 x i8] c"GIT_COMMITTER_NAME\00", align 1
@.str.249 = private unnamed_addr constant [20 x i8] c"GIT_COMMITTER_EMAIL\00", align 1
@.str.250 = private unnamed_addr constant [30 x i8] c"failed to write commit object\00", align 1
@.str.251 = private unnamed_addr constant [18 x i8] c"GIT_REFLOG_ACTION\00", align 1
@.str.252 = private unnamed_addr constant [9 x i8] c"%s: %.*s\00", align 1
@.str.253 = private unnamed_addr constant [2 x i8] c"a\00", align 1
@.str.254 = private unnamed_addr constant [4 x i8] c"%s \00", align 1
@.str.255 = private unnamed_addr constant [16 x i8] c"post-applypatch\00", align 1

; Function Attrs: inlinehint nounwind uwtable
define internal ptr @am_path(ptr noundef %0, ptr noundef %1) #5 {
  %3 = alloca ptr, align 8
  %4 = alloca ptr, align 8
  store ptr %0, ptr %3, align 8, !tbaa !47
  store ptr %1, ptr %4, align 8, !tbaa !11
  %5 = load ptr, ptr %3, align 8, !tbaa !47
  %6 = getelementptr inbounds nuw %struct.am_state, ptr %5, i32 0, i32 0
  %7 = load ptr, ptr %6, align 8, !tbaa !31
  %8 = load ptr, ptr %4, align 8, !tbaa !11
  %9 = call ptr (ptr, ...) @mkpath(ptr noundef @.str.83, ptr noundef %7, ptr noundef %8)
  ret ptr %9
}

; Function Attrs: nounwind uwtable
define internal i32 @linelen(ptr noundef %0) #0 {
  %2 = alloca ptr, align 8
  store ptr %0, ptr %2, align 8, !tbaa !11
  %3 = load ptr, ptr %2, align 8, !tbaa !11
  %4 = call ptr @strchrnul(ptr noundef %3, i32 noundef 10) #16
  %5 = load ptr, ptr %2, align 8, !tbaa !11
  %6 = ptrtoint ptr %4 to i64
  %7 = ptrtoint ptr %5 to i64
  %8 = sub i64 %6, %7
  %9 = trunc i64 %8 to i32
  ret i32 %9
}

; Function Attrs: nounwind uwtable
define internal void @do_commit(ptr noundef %0) #0 {
  %2 = alloca ptr, align 8
  %3 = alloca %struct.object_id, align 4
  %4 = alloca %struct.object_id, align 4
  %5 = alloca %struct.object_id, align 4
  %6 = alloca ptr, align 8
  %7 = alloca ptr, align 8
  %8 = alloca ptr, align 8
  %9 = alloca ptr, align 8
  %10 = alloca ptr, align 8
  %11 = alloca %struct.strbuf, align 8
  %12 = alloca ptr, align 8
  store ptr %0, ptr %2, align 8, !tbaa !47
  call void @llvm.lifetime.start.p0(i64 36, ptr %3) #14
  call void @llvm.lifetime.start.p0(i64 36, ptr %4) #14
  call void @llvm.lifetime.start.p0(i64 36, ptr %5) #14
  call void @llvm.lifetime.start.p0(i64 8, ptr %6) #14
  call void @llvm.lifetime.start.p0(i64 8, ptr %7) #14
  store ptr null, ptr %7, align 8, !tbaa !189
  call void @llvm.lifetime.start.p0(i64 8, ptr %8) #14
  call void @llvm.lifetime.start.p0(i64 8, ptr %9) #14
  call void @llvm.lifetime.start.p0(i64 8, ptr %10) #14
  store ptr null, ptr %10, align 8, !tbaa !11
  call void @llvm.lifetime.start.p0(i64 24, ptr %11) #14
  call void @llvm.memcpy.p0.p0.i64(ptr align 8 %11, ptr align 8 @__const.do_commit.sb, i64 24, i1 false)
  %13 = load ptr, ptr %2, align 8, !tbaa !47
  %14 = getelementptr inbounds nuw %struct.am_state, ptr %13, i32 0, i32 11
  %15 = load i32, ptr %14, align 4, !tbaa !132
  %16 = icmp ne i32 %15, 0
  br i1 %16, label %23, label %17

17:                                               ; preds = %1
  %18 = load ptr, ptr @the_repository, align 8, !tbaa !13
  %19 = call i32 @run_hooks(ptr noundef %18, ptr noundef @.str.245)
  %20 = icmp ne i32 %19, 0
  br i1 %20, label %21, label %23

21:                                               ; preds = %17
  %22 = call i32 @common_exit(ptr noundef @.str.85, i32 noundef 1670, i32 noundef 1)
  call void @exit(i32 noundef %22) #17
  unreachable

23:                                               ; preds = %17, %1
  %24 = load ptr, ptr @the_repository, align 8, !tbaa !13
  %25 = getelementptr inbounds nuw %struct.repository, ptr %24, i32 0, i32 15
  %26 = load ptr, ptr %25, align 8, !tbaa !93
  %27 = load ptr, ptr @the_repository, align 8, !tbaa !13
  %28 = call ptr @repo_get_index_file(ptr noundef %27)
  %29 = call i32 @write_index_as_tree(ptr noundef %3, ptr noundef %26, ptr noundef %28, i32 noundef 0, ptr noundef null)
  %30 = icmp ne i32 %29, 0
  br i1 %30, label %31, label %33

31:                                               ; preds = %23
  %32 = call ptr @_(ptr noundef @.str.246)
  call void (ptr, ...) @die(ptr noundef %32) #15
  unreachable

33:                                               ; preds = %23
  %34 = load ptr, ptr @the_repository, align 8, !tbaa !13
  %35 = call i32 @repo_get_oid_commit(ptr noundef %34, ptr noundef @.str.137, ptr noundef %4)
  %36 = icmp ne i32 %35, 0
  br i1 %36, label %41, label %37

37:                                               ; preds = %33
  store ptr %4, ptr %6, align 8, !tbaa !100
  %38 = load ptr, ptr @the_repository, align 8, !tbaa !13
  %39 = call ptr @lookup_commit(ptr noundef %38, ptr noundef %4)
  %40 = call ptr @commit_list_insert(ptr noundef %39, ptr noundef %7)
  br label %45

41:                                               ; preds = %33
  store ptr null, ptr %6, align 8, !tbaa !100
  %42 = load ptr, ptr %2, align 8, !tbaa !47
  %43 = load ptr, ptr @stderr, align 8, !tbaa !29
  %44 = call ptr @_(ptr noundef @.str.247)
  call void (ptr, ptr, ptr, ...) @say(ptr noundef %42, ptr noundef %43, ptr noundef %44)
  br label %45

45:                                               ; preds = %41, %37
  %46 = load ptr, ptr %2, align 8, !tbaa !47
  %47 = getelementptr inbounds nuw %struct.am_state, ptr %46, i32 0, i32 3
  %48 = load ptr, ptr %47, align 8, !tbaa !87
  %49 = load ptr, ptr %2, align 8, !tbaa !47
  %50 = getelementptr inbounds nuw %struct.am_state, ptr %49, i32 0, i32 4
  %51 = load ptr, ptr %50, align 8, !tbaa !88
  %52 = load ptr, ptr %2, align 8, !tbaa !47
  %53 = getelementptr inbounds nuw %struct.am_state, ptr %52, i32 0, i32 24
  %54 = load i32, ptr %53, align 4, !tbaa !190
  %55 = icmp ne i32 %54, 0
  br i1 %55, label %56, label %57

56:                                               ; preds = %45
  br label %61

57:                                               ; preds = %45
  %58 = load ptr, ptr %2, align 8, !tbaa !47
  %59 = getelementptr inbounds nuw %struct.am_state, ptr %58, i32 0, i32 5
  %60 = load ptr, ptr %59, align 8, !tbaa !89
  br label %61

61:                                               ; preds = %57, %56
  %62 = phi ptr [ null, %56 ], [ %60, %57 ]
  %63 = call ptr @fmt_ident(ptr noundef %48, ptr noundef %51, i32 noundef 1, ptr noundef %62, i32 noundef 1)
  store ptr %63, ptr %9, align 8, !tbaa !11
  %64 = load ptr, ptr %2, align 8, !tbaa !47
  %65 = getelementptr inbounds nuw %struct.am_state, ptr %64, i32 0, i32 23
  %66 = load i32, ptr %65, align 8, !tbaa !191
  %67 = icmp ne i32 %66, 0
  br i1 %67, label %68, label %83

68:                                               ; preds = %61
  %69 = call ptr @getenv(ptr noundef @.str.248) #14
  %70 = call ptr @getenv(ptr noundef @.str.249) #14
  %71 = load ptr, ptr %2, align 8, !tbaa !47
  %72 = getelementptr inbounds nuw %struct.am_state, ptr %71, i32 0, i32 24
  %73 = load i32, ptr %72, align 4, !tbaa !190
  %74 = icmp ne i32 %73, 0
  br i1 %74, label %75, label %76

75:                                               ; preds = %68
  br label %80

76:                                               ; preds = %68
  %77 = load ptr, ptr %2, align 8, !tbaa !47
  %78 = getelementptr inbounds nuw %struct.am_state, ptr %77, i32 0, i32 5
  %79 = load ptr, ptr %78, align 8, !tbaa !89
  br label %80

80:                                               ; preds = %76, %75
  %81 = phi ptr [ null, %75 ], [ %79, %76 ]
  %82 = call ptr @fmt_ident(ptr noundef %69, ptr noundef %70, i32 noundef 2, ptr noundef %81, i32 noundef 1)
  store ptr %82, ptr %10, align 8, !tbaa !11
  br label %83

83:                                               ; preds = %80, %61
  %84 = load ptr, ptr %2, align 8, !tbaa !47
  %85 = getelementptr inbounds nuw %struct.am_state, ptr %84, i32 0, i32 6
  %86 = load ptr, ptr %85, align 8, !tbaa !85
  %87 = load ptr, ptr %2, align 8, !tbaa !47
  %88 = getelementptr inbounds nuw %struct.am_state, ptr %87, i32 0, i32 7
  %89 = load i64, ptr %88, align 8, !tbaa !86
  %90 = load ptr, ptr %7, align 8, !tbaa !189
  %91 = load ptr, ptr %9, align 8, !tbaa !11
  %92 = load ptr, ptr %10, align 8, !tbaa !11
  %93 = load ptr, ptr %2, align 8, !tbaa !47
  %94 = getelementptr inbounds nuw %struct.am_state, ptr %93, i32 0, i32 26
  %95 = load ptr, ptr %94, align 8, !tbaa !53
  %96 = call i32 @commit_tree_extended(ptr noundef %86, i64 noundef %89, ptr noundef %3, ptr noundef %90, ptr noundef %5, ptr noundef %91, ptr noundef %92, ptr noundef %95, ptr noundef null)
  %97 = icmp ne i32 %96, 0
  br i1 %97, label %98, label %100

98:                                               ; preds = %83
  %99 = call ptr @_(ptr noundef @.str.250)
  call void (ptr, ...) @die(ptr noundef %99) #15
  unreachable

100:                                              ; preds = %83
  %101 = call ptr @getenv(ptr noundef @.str.251) #14
  store ptr %101, ptr %8, align 8, !tbaa !11
  %102 = load ptr, ptr %8, align 8, !tbaa !11
  %103 = icmp ne ptr %102, null
  br i1 %103, label %105, label %104

104:                                              ; preds = %100
  store ptr @.str.139, ptr %8, align 8, !tbaa !11
  br label %105

105:                                              ; preds = %104, %100
  %106 = load ptr, ptr %8, align 8, !tbaa !11
  %107 = load ptr, ptr %2, align 8, !tbaa !47
  %108 = getelementptr inbounds nuw %struct.am_state, ptr %107, i32 0, i32 6
  %109 = load ptr, ptr %108, align 8, !tbaa !85
  %110 = call i32 @linelen(ptr noundef %109)
  %111 = load ptr, ptr %2, align 8, !tbaa !47
  %112 = getelementptr inbounds nuw %struct.am_state, ptr %111, i32 0, i32 6
  %113 = load ptr, ptr %112, align 8, !tbaa !85
  call void (ptr, ptr, ...) @strbuf_addf(ptr noundef %11, ptr noundef @.str.252, ptr noundef %106, i32 noundef %110, ptr noundef %113)
  %114 = load ptr, ptr @the_repository, align 8, !tbaa !13
  %115 = call ptr @get_main_ref_store(ptr noundef %114)
  %116 = getelementptr inbounds nuw %struct.strbuf, ptr %11, i32 0, i32 2
  %117 = load ptr, ptr %116, align 8, !tbaa !57
  %118 = load ptr, ptr %6, align 8, !tbaa !100
  %119 = call i32 @refs_update_ref(ptr noundef %115, ptr noundef %117, ptr noundef @.str.137, ptr noundef %5, ptr noundef %118, i32 noundef 0, i32 noundef 1)
  %120 = load ptr, ptr %2, align 8, !tbaa !47
  %121 = getelementptr inbounds nuw %struct.am_state, ptr %120, i32 0, i32 27
  %122 = load i32, ptr %121, align 8, !tbaa !36
  %123 = icmp ne i32 %122, 0
  br i1 %123, label %124, label %138

124:                                              ; preds = %105
  call void @llvm.lifetime.start.p0(i64 8, ptr %12) #14
  %125 = load ptr, ptr %2, align 8, !tbaa !47
  %126 = call ptr @am_path(ptr noundef %125, ptr noundef @.str.198)
  %127 = call ptr @xfopen(ptr noundef %126, ptr noundef @.str.253)
  store ptr %127, ptr %12, align 8, !tbaa !29
  %128 = load ptr, ptr %12, align 8, !tbaa !29
  %129 = load ptr, ptr %2, align 8, !tbaa !47
  %130 = getelementptr inbounds nuw %struct.am_state, ptr %129, i32 0, i32 8
  %131 = call ptr @oid_to_hex(ptr noundef %130)
  %132 = call i32 (ptr, ptr, ...) @fprintf(ptr noundef %128, ptr noundef @.str.254, ptr noundef %131) #14
  %133 = load ptr, ptr %12, align 8, !tbaa !29
  %134 = call ptr @oid_to_hex(ptr noundef %5)
  %135 = call i32 (ptr, ptr, ...) @fprintf(ptr noundef %133, ptr noundef @.str.170, ptr noundef %134) #14
  %136 = load ptr, ptr %12, align 8, !tbaa !29
  %137 = call i32 @fclose(ptr noundef %136)
  call void @llvm.lifetime.end.p0(i64 8, ptr %12) #14
  br label %138

138:                                              ; preds = %124, %105
  %139 = load ptr, ptr @the_repository, align 8, !tbaa !13
  %140 = call i32 @run_hooks(ptr noundef %139, ptr noundef @.str.255)
  %141 = load ptr, ptr %7, align 8, !tbaa !189
  call void @free_commit_list(ptr noundef %141)
  call void @strbuf_release(ptr noundef %11)
  call void @llvm.lifetime.end.p0(i64 24, ptr %11) #14
  call void @llvm.lifetime.end.p0(i64 8, ptr %10) #14
  call void @llvm.lifetime.end.p0(i64 8, ptr %9) #14
  call void @llvm.lifetime.end.p0(i64 8, ptr %8) #14
  call void @llvm.lifetime.end.p0(i64 8, ptr %7) #14
  call void @llvm.lifetime.end.p0(i64 8, ptr %6) #14
  call void @llvm.lifetime.end.p0(i64 36, ptr %5) #14
  call void @llvm.lifetime.end.p0(i64 36, ptr %4) #14
  call void @llvm.lifetime.end.p0(i64 36, ptr %3) #14
  ret void
}