; Function Attrs: nounwind uwtable
define internal fastcc void @do_commit(ptr noundef nonnull %0) unnamed_addr #0 {
  %2 = alloca %struct.object_id, align 4
  %3 = alloca %struct.object_id, align 4
  %4 = alloca %struct.object_id, align 4
  %5 = alloca ptr, align 8
  %6 = alloca %struct.strbuf, align 8
  call void @llvm.lifetime.start.p0(i64 36, ptr nonnull %2) #21
  call void @llvm.lifetime.start.p0(i64 36, ptr nonnull %3) #21
  call void @llvm.lifetime.start.p0(i64 36, ptr nonnull %4) #21
  call void @llvm.lifetime.start.p0(i64 8, ptr nonnull %5) #21
  store ptr null, ptr %5, align 8, !tbaa !184
  call void @llvm.lifetime.start.p0(i64 24, ptr nonnull %6) #21
  call void @llvm.memcpy.p0.p0.i64(ptr noundef nonnull align 8 dereferenceable(24) %6, ptr noundef nonnull align 8 dereferenceable(24) @__const.show_patch.sb, i64 24, i1 false)
  %7 = getelementptr inbounds nuw i8, ptr %0, i64 100
  %8 = load i32, ptr %7, align 4, !tbaa !155
  %.not = icmp eq i32 %8, 0
  br i1 %.not, label %9, label %14

9:                                                ; preds = %1
  %10 = load ptr, ptr @the_repository, align 8, !tbaa !21
  %11 = tail call i32 @run_hooks(ptr noundef %10, ptr noundef nonnull @.str.245) #21
  %.not26 = icmp eq i32 %11, 0
  br i1 %.not26, label %14, label %12

12:                                               ; preds = %9
  %13 = tail call i32 @common_exit(ptr noundef nonnull @.str.85, i32 noundef 1670, i32 noundef 1) #21
  tail call void @exit(i32 noundef %13) #22
  unreachable

14:                                               ; preds = %9, %1
  %15 = load ptr, ptr @the_repository, align 8, !tbaa !21
  %16 = getelementptr inbounds nuw i8, ptr %15, i64 384
  %17 = load ptr, ptr %16, align 8, !tbaa !64
  %18 = tail call ptr @repo_get_index_file(ptr noundef %15) #21
  %19 = call i32 @write_index_as_tree(ptr noundef nonnull %2, ptr noundef %17, ptr noundef %18, i32 noundef 0, ptr noundef null) #21
  %.not27 = icmp eq i32 %19, 0
  br i1 %.not27, label %22, label %20

20:                                               ; preds = %14
  %21 = call fastcc ptr @_(ptr noundef nonnull @.str.246)
  call void (ptr, ...) @die(ptr noundef %21) #22
  unreachable

22:                                               ; preds = %14
  %23 = load ptr, ptr @the_repository, align 8, !tbaa !21
  %24 = call i32 @repo_get_oid_commit(ptr noundef %23, ptr noundef nonnull @.str.137, ptr noundef nonnull %3) #21
  %.not28 = icmp eq i32 %24, 0
  br i1 %.not28, label %25, label %29

25:                                               ; preds = %22
  %26 = load ptr, ptr @the_repository, align 8, !tbaa !21
  %27 = call ptr @lookup_commit(ptr noundef %26, ptr noundef nonnull %3) #21
  %28 = call ptr @commit_list_insert(ptr noundef %27, ptr noundef nonnull %5) #21
  br label %34

29:                                               ; preds = %22
  %30 = load ptr, ptr @stderr, align 8, !tbaa !36
  %31 = load i32, ptr @git_gettext_enabled, align 4, !tbaa !4
  %.not4.i = icmp eq i32 %31, 0
  br i1 %.not4.i, label %_.exit, label %32

32:                                               ; preds = %29
  %33 = call ptr @dcgettext(ptr noundef null, ptr noundef nonnull @.str.247, i32 noundef 5) #21
  br label %_.exit

_.exit:                                           ; preds = %29, %32
  %.0.i = phi ptr [ %33, %32 ], [ @.str.247, %29 ]
  call void (ptr, ptr, ptr, ...) @say(ptr noundef %0, ptr noundef %30, ptr noundef %.0.i)
  br label %34

34:                                               ; preds = %_.exit, %25
  %.0 = phi ptr [ null, %_.exit ], [ %3, %25 ]
  %35 = getelementptr inbounds nuw i8, ptr %0, i64 16
  %36 = load ptr, ptr %35, align 8, !tbaa !41
  %37 = getelementptr inbounds nuw i8, ptr %0, i64 24
  %38 = load ptr, ptr %37, align 8, !tbaa !42
  %39 = getelementptr inbounds nuw i8, ptr %0, i64 180
  %40 = load i32, ptr %39, align 4, !tbaa !185
  %.not29 = icmp eq i32 %40, 0
  br i1 %.not29, label %41, label %44

41:                                               ; preds = %34
  %42 = getelementptr inbounds nuw i8, ptr %0, i64 32
  %43 = load ptr, ptr %42, align 8, !tbaa !43
  br label %44

44:                                               ; preds = %34, %41
  %45 = phi ptr [ %43, %41 ], [ null, %34 ]
  %46 = call ptr @fmt_ident(ptr noundef %36, ptr noundef %38, i32 noundef 1, ptr noundef %45, i32 noundef 1) #21
  %47 = getelementptr inbounds nuw i8, ptr %0, i64 176
  %48 = load i32, ptr %47, align 8, !tbaa !186
  %.not30 = icmp eq i32 %48, 0
  br i1 %.not30, label %59, label %49

49:                                               ; preds = %44
  %50 = call ptr @getenv(ptr noundef nonnull @.str.248) #21
  %51 = call ptr @getenv(ptr noundef nonnull @.str.249) #21
  %52 = load i32, ptr %39, align 4, !tbaa !185
  %.not31 = icmp eq i32 %52, 0
  br i1 %.not31, label %53, label %56

53:                                               ; preds = %49
  %54 = getelementptr inbounds nuw i8, ptr %0, i64 32
  %55 = load ptr, ptr %54, align 8, !tbaa !43
  br label %56

56:                                               ; preds = %49, %53
  %57 = phi ptr [ %55, %53 ], [ null, %49 ]
  %58 = call ptr @fmt_ident(ptr noundef %50, ptr noundef %51, i32 noundef 2, ptr noundef %57, i32 noundef 1) #21
  br label %59

59:                                               ; preds = %56, %44
  %.025 = phi ptr [ %58, %56 ], [ null, %44 ]
  %60 = getelementptr inbounds nuw i8, ptr %0, i64 40
  %61 = load ptr, ptr %60, align 8, !tbaa !39
  %62 = getelementptr inbounds nuw i8, ptr %0, i64 48
  %63 = load i64, ptr %62, align 8, !tbaa !40
  %64 = load ptr, ptr %5, align 8, !tbaa !184
  %65 = getelementptr inbounds nuw i8, ptr %0, i64 192
  %66 = load ptr, ptr %65, align 8, !tbaa !32
  %67 = call i32 @commit_tree_extended(ptr noundef %61, i64 noundef %63, ptr noundef nonnull %2, ptr noundef %64, ptr noundef nonnull %4, ptr noundef %46, ptr noundef %.025, ptr noundef %66, ptr noundef null) #21
  %.not32 = icmp eq i32 %67, 0
  br i1 %.not32, label %70, label %68

68:                                               ; preds = %59
  %69 = call fastcc ptr @_(ptr noundef nonnull @.str.250)
  call void (ptr, ...) @die(ptr noundef %69) #22
  unreachable

70:                                               ; preds = %59
  %71 = call ptr @getenv(ptr noundef nonnull @.str.251) #21
  %.not33 = icmp eq ptr %71, null
  %spec.store.select = select i1 %.not33, ptr @.str.139, ptr %71
  %72 = load ptr, ptr %60, align 8, !tbaa !39
  %73 = call ptr @strchrnul(ptr noundef %72, i32 noundef 10) #23
  %74 = ptrtoint ptr %73 to i64
  %75 = ptrtoint ptr %72 to i64
  %76 = sub i64 %74, %75
  %77 = trunc i64 %76 to i32
  call void (ptr, ptr, ...) @strbuf_addf(ptr noundef nonnull %6, ptr noundef nonnull @.str.252, ptr noundef nonnull %spec.store.select, i32 noundef %77, ptr noundef %72) #21
  %78 = load ptr, ptr @the_repository, align 8, !tbaa !21
  %79 = call ptr @get_main_ref_store(ptr noundef %78) #21
  %80 = getelementptr inbounds nuw i8, ptr %6, i64 16
  %81 = load ptr, ptr %80, align 8, !tbaa !51
  %82 = call i32 @refs_update_ref(ptr noundef %79, ptr noundef %81, ptr noundef nonnull @.str.137, ptr noundef nonnull %4, ptr noundef %.0, i32 noundef 0, i32 noundef 1) #21
  %83 = getelementptr inbounds nuw i8, ptr %0, i64 200
  %84 = load i32, ptr %83, align 8, !tbaa !55
  %.not34 = icmp eq i32 %84, 0
  br i1 %.not34, label %94, label %85

85:                                               ; preds = %70
  %.val = load ptr, ptr %0, align 8, !tbaa !23
  %86 = call ptr (ptr, ...) @mkpath(ptr noundef nonnull @.str.83, ptr noundef %.val, ptr noundef nonnull @.str.198) #21
  %87 = call ptr @xfopen(ptr noundef %86, ptr noundef nonnull @.str.253) #21
  %88 = getelementptr inbounds nuw i8, ptr %0, i64 56
  %89 = call ptr @oid_to_hex(ptr noundef nonnull %88) #21
  %90 = call i32 (ptr, ptr, ...) @fprintf(ptr noundef %87, ptr noundef nonnull @.str.254, ptr noundef %89) #21
  %91 = call ptr @oid_to_hex(ptr noundef nonnull %4) #21
  %92 = call i32 (ptr, ptr, ...) @fprintf(ptr noundef %87, ptr noundef nonnull @.str.170, ptr noundef %91) #21
  %93 = call i32 @fclose(ptr noundef %87)
  br label %94

94:                                               ; preds = %85, %70
  %95 = load ptr, ptr @the_repository, align 8, !tbaa !21
  %96 = call i32 @run_hooks(ptr noundef %95, ptr noundef nonnull @.str.255) #21
  %97 = load ptr, ptr %5, align 8, !tbaa !184
  call void @free_commit_list(ptr noundef %97) #21
  call void @strbuf_release(ptr noundef nonnull %6) #21
  call void @llvm.lifetime.end.p0(i64 24, ptr nonnull %6) #21
  call void @llvm.lifetime.end.p0(i64 8, ptr nonnull %5) #21
  call void @llvm.lifetime.end.p0(i64 36, ptr nonnull %4) #21
  call void @llvm.lifetime.end.p0(i64 36, ptr nonnull %3) #21
  call void @llvm.lifetime.end.p0(i64 36, ptr nonnull %2) #21
  ret void
}